target datalayout = "e-m:e-p270:32:32-p271:32:32-p272:64:64-i64:64-i128:128-f80:128-n8:16:32:64-S128"
target triple = "x86_64-pc-linux-gnu"

%struct.ArrayAnalyzeExtraData = type { i32, i32, i32, i8, i16, i8, ptr, ptr, ptr, ptr }

@array_extra_data = internal global ptr null, align 8

; Function Attrs: inlinehint nounwind uwtable
define internal i32 @DatumGetInt32(i64 noundef %0) #2 {
  %2 = alloca i64, align 8
  store i64 %0, ptr %2, align 8
  %3 = load i64, ptr %2, align 8
  %4 = trunc i64 %3 to i32
  ret i32 %4
}

; Function Attrs: nounwind uwtable
define internal i32 @element_compare(ptr noundef %0, ptr noundef %1) #0 {
  %3 = alloca ptr, align 8
  %4 = alloca ptr, align 8
  %5 = alloca i64, align 8
  %6 = alloca i64, align 8
  %7 = alloca i64, align 8
  store ptr %0, ptr %3, align 8
  store ptr %1, ptr %4, align 8
  call void @llvm.lifetime.start.p0(i64 8, ptr %5) #5
  %8 = load ptr, ptr %3, align 8
  %9 = load i64, ptr %8, align 8
  store i64 %9, ptr %5, align 8
  call void @llvm.lifetime.start.p0(i64 8, ptr %6) #5
  %10 = load ptr, ptr %4, align 8
  %11 = load i64, ptr %10, align 8
  store i64 %11, ptr %6, align 8
  call void @llvm.lifetime.start.p0(i64 8, ptr %7) #5
  %12 = load ptr, ptr @array_extra_data, align 8
  %13 = getelementptr inbounds nuw %struct.ArrayAnalyzeExtraData, ptr %12, i32 0, i32 6
  %14 = load ptr, ptr %13, align 8
  %15 = load ptr, ptr @array_extra_data, align 8
  %16 = getelementptr inbounds nuw %struct.ArrayAnalyzeExtraData, ptr %15, i32 0, i32 2
  %17 = load i32, ptr %16, align 8
  %18 = load i64, ptr %5, align 8
  %19 = load i64, ptr %6, align 8
  %20 = call i64 @FunctionCall2Coll(ptr noundef %14, i32 noundef %17, i64 noundef %18, i64 noundef %19)
  store i64 %20, ptr %7, align 8
  %21 = load i64, ptr %7, align 8
  %22 = call i32 @DatumGetInt32(i64 noundef %21)
  call void @llvm.lifetime.end.p0(i64 8, ptr %7) #5
  call void @llvm.lifetime.end.p0(i64 8, ptr %6) #5
  call void @llvm.lifetime.end.p0(i64 8, ptr %5) #5
  ret i32 %22
}

; Function Attrs: nounwind uwtable
define internal i32 @element_match(ptr noundef %0, ptr noundef %1, i64 noundef %2) #0 {
  %4 = alloca ptr, align 8
  %5 = alloca ptr, align 8
  %6 = alloca i64, align 8
  store ptr %0, ptr %4, align 8
  store ptr %1, ptr %5, align 8
  store i64 %2, ptr %6, align 8
  %7 = load ptr, ptr %4, align 8
  %8 = load ptr, ptr %5, align 8
  %9 = call i32 @element_compare(ptr noundef %7, ptr noundef %8)
  ret i32 %9
}