; Function Attrs: nounwind uwtable
define internal i32 @element_match(ptr noundef readonly captures(none) %0, ptr noundef readonly captures(none) %1, i64 %2) #0 {
  %.val = load i64, ptr %0, align 8
  %.val2 = load i64, ptr %1, align 8
  %4 = load ptr, ptr @array_extra_data, align 8
  %5 = getelementptr inbounds nuw i8, ptr %4, i64 24
  %6 = load ptr, ptr %5, align 8
  %7 = getelementptr inbounds nuw i8, ptr %4, i64 8
  %8 = load i32, ptr %7, align 8
  %9 = tail call i64 @FunctionCall2Coll(ptr noundef %6, i32 noundef %8, i64 noundef %.val, i64 noundef %.val2) #7
  %10 = trunc i64 %9 to i32
  ret i32 %10
}